target datalayout = "e-m:e-p270:32:32-p271:32:32-p272:64:64-i64:64-i128:128-f80:128-n8:16:32:64-S128"
target triple = "x86_64-pc-linux-gnu"

%struct.evp_pkey_method_st = type { i32, i32, ptr, ptr, ptr, ptr, ptr, ptr, ptr, ptr, ptr, ptr, ptr, ptr, ptr, ptr, ptr, ptr, ptr, ptr, ptr, ptr, ptr, ptr, ptr, ptr, ptr, ptr, ptr, ptr, ptr, ptr, ptr }

; Function Attrs: nounwind uwtable
define void @EVP_PKEY_meth_get_public_check(ptr noundef %0, ptr noundef %1) #0 {
  %3 = alloca ptr, align 8
  %4 = alloca ptr, align 8
  store ptr %0, ptr %3, align 8, !tbaa !7
  store ptr %1, ptr %4, align 8, !tbaa !12
  %5 = load ptr, ptr %4, align 8, !tbaa !12
  %6 = icmp ne ptr %5, null
  br i1 %6, label %7, label %12

7:                                                ; preds = %2
  %8 = load ptr, ptr %3, align 8, !tbaa !7
  %9 = getelementptr inbounds nuw %struct.evp_pkey_method_st, ptr %8, i32 0, i32 30
  %10 = load ptr, ptr %9, align 8, !tbaa !147
  %11 = load ptr, ptr %4, align 8, !tbaa !12
  store ptr %10, ptr %11, align 8, !tbaa !12
  br label %12

12:                                               ; preds = %7, %2
  ret void
}